; Function Attrs: mustprogress nounwind uwtable
define internal fastcc void @_ZN5clang6interpL29interp__builtin_classify_typeERNS0_11InterpStateENS0_7CodePtrEPKNS0_11InterpFrameEPKNS0_8FunctionEPKNS_8CallExprE(ptr noundef nonnull align 8 dereferenceable(280) %0, ptr noundef readonly captures(none) %1) unnamed_addr #0 {
  %3 = alloca %"class.llvm::APSInt", align 8
  %4 = load i32, ptr %1, align 8
  %5 = lshr i32 %4, 24
  %6 = zext nneg i32 %5 to i64
  %7 = getelementptr inbounds nuw i8, ptr %1, i64 %6
  %8 = getelementptr inbounds nuw i8, ptr %7, i64 8
  %9 = lshr i32 %4, 18
  %10 = and i32 %9, 1
  %11 = zext nneg i32 %10 to i64
  %12 = getelementptr inbounds nuw ptr, ptr %8, i64 %11
  %13 = load ptr, ptr %12, align 8
  %14 = getelementptr inbounds nuw i8, ptr %13, i64 8
  %.sroa.0.0.copyload.i = load i64, ptr %14, align 8
  %15 = tail call noundef nonnull align 8 dereferenceable(841) ptr @_ZNK5clang6interp5State11getLangOptsEv(ptr noundef nonnull align 8 dereferenceable(9) %0) #16
  %16 = tail call noundef i32 @_Z27EvaluateBuiltinClassifyTypeN5clang8QualTypeERKNS_11LangOptionsE(i64 %.sroa.0.0.copyload.i, ptr noundef nonnull align 8 dereferenceable(841) %15) #16
  %17 = getelementptr inbounds nuw i8, ptr %1, i64 8
  %.sroa.0.0.copyload.i8 = load i64, ptr %17, align 8
  call void @llvm.lifetime.start.p0(i64 16, ptr nonnull %3)
  %18 = zext i32 %16 to i64
  %19 = getelementptr inbounds nuw i8, ptr %3, i64 8
  store i32 32, ptr %19, align 8
  store i64 %18, ptr %3, align 8
  %20 = getelementptr inbounds nuw i8, ptr %3, i64 12
  store i8 0, ptr %20, align 4
  call fastcc void @_ZN5clang6interpL11pushIntegerERNS0_11InterpStateERKN4llvm6APSIntENS_8QualTypeE(ptr noundef nonnull readonly align 8 dereferenceable(280) %0, ptr noundef nonnull align 8 dereferenceable(13) %3, i64 %.sroa.0.0.copyload.i8)
  call void @llvm.lifetime.end.p0(i64 16, ptr nonnull %3)
  ret void
}